(lp1
V\u7f8e\u98df,\u4e2d\u9910\u9986,\u9c81\u83dc
p2
aV\u7f8e\u98df,\u4e2d\u9910\u9986,\u5ddd\u83dc
p3
aV\u7f8e\u98df,\u4e2d\u9910\u9986,\u7ca4\u83dc
p4
aV\u7f8e\u98df,\u4e2d\u9910\u9986,\u5fbd\u83dc
p5
aV\u7f8e\u98df,\u4e2d\u9910\u9986,\u53f0\u6e7e\u83dc
p6
aV\u7f8e\u98df,\u4e2d\u9910\u9986,\u8d35\u5dde\u83dc
p7
aV\u7f8e\u98df,\u4e2d\u9910\u9986,\u6c5f\u6d59\u83dc
p8
aV\u7f8e\u98df,\u4e2d\u9910\u9986,\u6e58\u83dc
p9
aV\u7f8e\u98df,\u4e2d\u9910\u9986,\u6e56\u5317\u83dc
p10
aV\u7f8e\u98df,\u4e2d\u9910\u9986,\u6e05\u771f\u83dc
p11
aV\u7f8e\u98df,\u4e2d\u9910\u9986,\u4e91\u5357\u83dc
p12
aV\u7f8e\u98df,\u4e2d\u9910\u9986,\u4e1c\u5317\u83dc
p13
aV\u7f8e\u98df,\u4e2d\u9910\u9986,\u5317\u4eac\u83dc
p14
aV\u7f8e\u98df,\u4e2d\u9910\u9986,\u95fd\u5357\u83dc
p15
aV\u7f8e\u98df,\u4e2d\u9910\u9986,\u897f\u5317\u83dc
p16
aV\u7f8e\u98df,\u4e2d\u9910\u9986,\u7d20\u83dc
p17
aV\u7f8e\u98df,\u4e2d\u9910\u9986,\u706b\u9505
p18
aV\u7f8e\u98df,\u4e2d\u9910\u9986,\u70e4\u9e2d
p19
aV\u7f8e\u98df,\u4e2d\u9910\u9986,\u6d77\u9c9c
p20
aV\u7f8e\u98df,\u4e2d\u9910\u9986,\u5bb6\u5e38\u83dc
p21
aV\u7f8e\u98df,\u897f\u9910\u5385,\u610f\u5927\u5229\u83dc
p22
aV\u7f8e\u98df,\u897f\u9910\u5385,\u6cd5\u56fd\u83dc
p23
aV\u7f8e\u98df,\u897f\u9910\u5385,\u5fb7\u56fd\u83dc
p24
aV\u7f8e\u98df,\u897f\u9910\u5385,\u4fc4\u7f57\u65af\u83dc
p25
aV\u7f8e\u98df,\u897f\u9910\u5385,\u62c9\u7f8e\u70e7\u70e4
p26
aV\u7f8e\u98df,\u897f\u9910\u5385,\u4e2d\u4e1c\u6599\u7406
p27
aV\u7f8e\u98df,\u897f\u9910\u5385,\u62ab\u8428
p28
aV\u7f8e\u98df,\u897f\u9910\u5385,\u725b\u6392
p29
aV\u7f8e\u98df,\u65e5\u672c\u83dc,\u65e5\u672c\u6599\u7406
p30
aV\u7f8e\u98df,\u65e5\u672c\u83dc,\u65e5\u5f0f\u70e7\u70e4
p31
aV\u7f8e\u98df,\u65e5\u672c\u83dc,\u5bff\u53f8
p32
aV\u7f8e\u98df,\u4e1c\u5357\u4e9a\u83dc,\u6cf0\u56fd\u83dc
p33
aV\u7f8e\u98df,\u4e1c\u5357\u4e9a\u83dc,\u8d8a\u5357\u83dc
p34
aV\u7f8e\u98df,\u4e1c\u5357\u4e9a\u83dc,\u5370\u5ea6\u83dc
p35
aV\u7f8e\u98df,\u4e1c\u5357\u4e9a\u83dc,\u83f2\u5f8b\u5bbe\u83dc
p36
aV\u7f8e\u98df,\u4e1c\u5357\u4e9a\u83dc,\u5370\u5c3c\u98ce\u5473
p37
aV\u7f8e\u98df,\u5feb\u9910,\u4e2d\u5f0f\u5feb\u9910
p38
aV\u7f8e\u98df,\u5feb\u9910,\u897f\u5f0f\u5feb\u9910
p39
aV\u7f8e\u98df,\u5c0f\u5403,\u7c89\u9762\u9986
p40
aV\u7f8e\u98df,\u5c0f\u5403,\u7ca5\u5e97
p41
aV\u7f8e\u98df,\u5c0f\u5403,\u997a\u5b50\u9986
p42
aV\u7f8e\u98df,\u5c0f\u5403,\u9984\u9968\u5e97
p43
aV\u7f8e\u98df,\u5c0f\u5403,\u9ebb\u8fa3\u70eb
p44
aV\u7f8e\u98df,\u5c0f\u5403,\u5173\u4e1c\u716e
p45
aV\u7f8e\u98df,\u5c0f\u5403,\u719f\u98df
p46
aV\u7f8e\u98df,\u5c0f\u5403,\u96f6\u98df
p47
aV\u7f8e\u98df,\u5c0f\u5403,\u5305\u5b50
p48
aV\u7f8e\u98df,\u86cb\u7cd5\u751c\u70b9,\u86cb\u7cd5\u897f\u70b9
p49
aV\u7f8e\u98df,\u86cb\u7cd5\u751c\u70b9,\u51b0\u6dc7\u6dcb
p50
aV\u7f8e\u98df,\u86cb\u7cd5\u751c\u70b9,\u751c\u70b9\u996e\u54c1
p51
aV\u5bbe\u9986,\u661f\u7ea7\u9152\u5e97,\u4e94\u661f\u7ea7\u9152\u5e97
p52
aV\u5bbe\u9986,\u661f\u7ea7\u9152\u5e97,\u56db\u661f\u7ea7\u9152\u5e97
p53
aV\u5bbe\u9986,\u661f\u7ea7\u9152\u5e97,\u4e09\u661f\u7ea7\u9152\u5e97
p54
aV\u5bbe\u9986,\u65c5\u5e97,\u5bb6\u5ead\u65c5\u9986
p55
aV\u5bbe\u9986,\u65c5\u5e97,\u9752\u5e74\u65c5\u820d
p56
aV\u5bbe\u9986,\u65c5\u5e97,\u62db\u5f85\u6240
p57
aV\u8d2d\u7269,\u5bb6\u7535,\u7a7a\u8c03
p58
aV\u8d2d\u7269,\u5bb6\u7535,\u51b0\u7bb1
p59
aV\u8d2d\u7269,\u5bb6\u7535,\u6d17\u8863\u673a
p60
aV\u8d2d\u7269,\u5bb6\u7535,\u5fae\u6ce2\u7089
p61
aV\u8d2d\u7269,\u6570\u7801,\u7535\u8111
p62
aV\u8d2d\u7269,\u6570\u7801,\u6444\u5f71
p63
aV\u8d2d\u7269,\u6570\u7801,\u624b\u673a
p64
aV\u8d2d\u7269,\u5bb6\u5c45\u5efa\u6750,\u5bb6\u5177
p65
aV\u8d2d\u7269,\u5bb6\u5c45\u5efa\u6750,\u706f\u9970
p66
aV\u8d2d\u7269,\u5bb6\u5c45\u5efa\u6750,\u53a8\u5177
p67
aV\u8d2d\u7269,\u5bb6\u5c45\u5efa\u6750,\u536b\u6d74
p68
aV\u8d2d\u7269,\u5bb6\u5c45\u5efa\u6750,\u4e94\u91d1
p69
aV\u8d2d\u7269,\u5bb6\u7eba,\u5e8a\u4e0a\u7528\u54c1
p70
aV\u8d2d\u7269,\u5bb6\u7eba,\u7a97\u5e18
p71
aV\u8d2d\u7269,\u5bb6\u7eba,\u5750\u57ab
p72
aV\u8d2d\u7269,\u5bb6\u7eba,\u5730\u6bef
p73
aV\u8d2d\u7269,\u4e66\u5e97/\u97f3\u50cf\u5e97,\u4e66\u5e97
p74
aV\u8d2d\u7269,\u4e66\u5e97/\u97f3\u50cf\u5e97,\u97f3\u50cf\u5e97
p75
aV\u8d2d\u7269,\u670d\u88c5/\u978b\u5e3d/\u7bb1\u5305,\u978b\u5b50
p76
aV\u8d2d\u7269,\u670d\u88c5/\u978b\u5e3d/\u7bb1\u5305,\u670d\u88c5
p77
aV\u8d2d\u7269,\u670d\u88c5/\u978b\u5e3d/\u7bb1\u5305,\u7bb1\u5305
p78
aV\u8d2d\u7269,\u73e0\u5b9d\u9970\u54c1,\u5a5a\u6212
p79
aV\u8d2d\u7269,\u82b1\u5e97/\u793c\u54c1\u5e97,\u82b1\u5e97
p80
aV\u8d2d\u7269,\u82b1\u5e97/\u793c\u54c1\u5e97,\u793c\u54c1\u5e97
p81
aV\u8d2d\u7269,\u8336\u53f6/\u8336\u5177,\u8336\u53f6
p82
aV\u8d2d\u7269,\u8336\u53f6/\u8336\u5177,\u8336\u5177
p83
aV\u8d2d\u7269,\u4e50\u5668\u884c,\u7434\u884c
p84
aV\u8d2d\u7269,\u96c6\u5e02/\u6279\u53d1\u5e02\u573a,\u519c\u8d38\u5e02\u573a
p85
aV\u8d2d\u7269,\u96c6\u5e02/\u6279\u53d1\u5e02\u573a,\u670d\u88c5\u6279\u53d1\u5e02\u573a
p86
aV\u8d2d\u7269,\u96c6\u5e02/\u6279\u53d1\u5e02\u573a,\u8f7b\u7eba\u5e02\u573a
p87
aV\u8d2d\u7269,\u96c6\u5e02/\u6279\u53d1\u5e02\u573a,\u836f\u6750\u6279\u53d1\u5e02\u573a
p88
aV\u8d2d\u7269,\u96c6\u5e02/\u6279\u53d1\u5e02\u573a,\u6587\u5177\u6279\u53d1\u5e02\u573a
p89
aV\u8d2d\u7269,\u96c6\u5e02/\u6279\u53d1\u5e02\u573a,\u5c0f\u5546\u54c1\u5e02\u573a
p90
aV\u8d2d\u7269,\u96c6\u5e02/\u6279\u53d1\u5e02\u573a,\u82b1\u9e1f\u5e02\u573a
p91
aV\u8d2d\u7269,\u96c6\u5e02/\u6279\u53d1\u5e02\u573a,\u4e8c\u624b\u5e02\u573a
p92
aV\u6c7d\u8f66\u670d\u52a1,\u6c7d\u8f66\u9500\u552e,4S\u5e97
p93
aV\u6c7d\u8f66\u670d\u52a1,\u6c7d\u8f66\u9500\u552e,\u6c7d\u8f66\u9500\u552e\u7efc\u5408\u5e97
p94
aV\u6c7d\u8f66\u670d\u52a1,\u6c7d\u8f66\u7f8e\u5bb9,\u6c7d\u8f66\u4fdd\u517b
p95
aV\u6c7d\u8f66\u670d\u52a1,\u6c7d\u8f66\u7f8e\u5bb9,\u6c7d\u8f66\u88c5\u9970
p96
aV\u751f\u6d3b\u670d\u52a1,\u901a\u8baf\u8425\u4e1a\u5385,\u7535\u4fe1\u8425\u4e1a\u5385
p97
aV\u751f\u6d3b\u670d\u52a1,\u901a\u8baf\u8425\u4e1a\u5385,\u79fb\u52a8\u8425\u4e1a\u5385
p98
aV\u751f\u6d3b\u670d\u52a1,\u901a\u8baf\u8425\u4e1a\u5385,\u8054\u901a\u8425\u4e1a\u5385
p99
aV\u751f\u6d3b\u670d\u52a1,\u901a\u8baf\u8425\u4e1a\u5385,\u94c1\u901a\u8425\u4e1a\u5385
p100
aV\u751f\u6d3b\u670d\u52a1,\u901a\u8baf\u8425\u4e1a\u5385,\u7f51\u901a\u8425\u4e1a\u5385
p101
aV\u751f\u6d3b\u670d\u52a1,\u706b\u8f66\u7968/\u673a\u7968/\u6c7d\u8f66\u7968\u552e\u7968\u70b9,\u706b\u8f66\u7968\u552e\u7968\u70b9
p102
aV\u751f\u6d3b\u670d\u52a1,\u706b\u8f66\u7968/\u673a\u7968/\u6c7d\u8f66\u7968\u552e\u7968\u70b9,\u98de\u673a\u7968\u552e\u7968\u70b9
p103
aV\u751f\u6d3b\u670d\u52a1,\u706b\u8f66\u7968/\u673a\u7968/\u6c7d\u8f66\u7968\u552e\u7968\u70b9,\u6c7d\u8f66\u7968\u552e\u7968\u70b9
p104
aV\u751f\u6d3b\u670d\u52a1,\u88c1\u7f1d\u5e97/\u6d17\u8863\u5e97,\u88c1\u7f1d\u5e97
p105
aV\u751f\u6d3b\u670d\u52a1,\u88c1\u7f1d\u5e97/\u6d17\u8863\u5e97,\u6d17\u8863\u5e97
p106
aV\u751f\u6d3b\u670d\u52a1,\u56fe\u6587\u5feb\u5370,\u6253\u5370\u590d\u5370
p107
aV\u751f\u6d3b\u670d\u52a1,\u56fe\u6587\u5feb\u5370,\u4f20\u771f
p108
aV\u751f\u6d3b\u670d\u52a1,\u56fe\u6587\u5feb\u5370,\u5feb\u7167
p109
aV\u751f\u6d3b\u670d\u52a1,\u7167\u76f8\u9986,\u827a\u672f\u5199\u771f
p110
aV\u751f\u6d3b\u670d\u52a1,\u7167\u76f8\u9986,\u8bc1\u4ef6\u7167
p111
aV\u751f\u6d3b\u670d\u52a1,\u6570\u7801\u7ef4\u4fee,\u7535\u8111\u7ef4\u4fee
p112
aV\u751f\u6d3b\u670d\u52a1,\u6570\u7801\u7ef4\u4fee,\u624b\u673a\u7ef4\u4fee
p113
aV\u751f\u6d3b\u670d\u52a1,\u5bb6\u653f\u670d\u52a1,\u642c\u5bb6
p114
aV\u751f\u6d3b\u670d\u52a1,\u5bb6\u653f\u670d\u52a1,\u4fdd\u59c6
p115
aV\u751f\u6d3b\u670d\u52a1,\u5bb6\u653f\u670d\u52a1,\u7ba1\u9053\u758f\u901a
p116
aV\u751f\u6d3b\u670d\u52a1,\u5bb6\u653f\u670d\u52a1,\u949f\u70b9\u5de5
p117
aV\u751f\u6d3b\u670d\u52a1,\u5bb6\u653f\u670d\u52a1,\u5bb6\u7535\u7ef4\u4fee
p118
aV\u751f\u6d3b\u670d\u52a1,\u5bb6\u653f\u670d\u52a1,\u9001\u6c34
p119
aV\u751f\u6d3b\u670d\u52a1,\u5bb6\u653f\u670d\u52a1,\u5f00\u9501
p120
aV\u751f\u6d3b\u670d\u52a1,\u5ba0\u7269,\u5ba0\u7269\u7f8e\u5bb9
p121
aV\u751f\u6d3b\u670d\u52a1,\u5ba0\u7269,\u5ba0\u7269\u7528\u54c1
p122
aV\u751f\u6d3b\u670d\u52a1,\u5ba0\u7269,\u5ba0\u7269\u533b\u9662
p123
aV\u751f\u6d3b\u670d\u52a1,\u5ba0\u7269,\u5ba0\u7269\u5bc4\u517b
p124
aV\u751f\u6d3b\u670d\u52a1,\u5ba0\u7269,\u5ba0\u7269\u98df\u54c1
p125
aV\u751f\u6d3b\u670d\u52a1,\u8f66\u8f86\u7ef4\u4fee,\u6469\u6258\u8f66\u7ef4\u4fee
p126
aV\u751f\u6d3b\u670d\u52a1,\u8f66\u8f86\u7ef4\u4fee,\u81ea\u884c\u8f66\u7ef4\u4fee
p127
aV\u751f\u6d3b\u670d\u52a1,\u65c5\u884c\u793e,\u56fd\u9645\u65c5\u884c\u793e
p128
aV\u7ed3\u5a5a,\u5a5a\u5e86\u670d\u52a1,\u5a5a\u5e86\u7b56\u5212
p129
aV\u7ed3\u5a5a,\u5a5a\u5e86\u670d\u52a1,\u5e86\u5178\u7528\u54c1
p130
aV\u7ed3\u5a5a,\u5a5a\u5e86\u670d\u52a1,\u5a5a\u5e86\u79df\u8f66
p131
aV\u7ed3\u5a5a,\u5a5a\u5e86\u670d\u52a1,\u53f8\u4eea\u7763\u5bfc
p132
aV\u7ed3\u5a5a,\u5a5a\u5e86\u670d\u52a1,\u8ddf\u5986\u9020\u578b
p133
aV\u4e3d\u4eba,\u7f8e\u5bb9,SPA
p134
aV\u4e3d\u4eba,\u7f8e\u5bb9,\u9762\u90e8\u62a4\u7406
p135
aV\u4e3d\u4eba,\u7f8e\u53d1,\u6d17\u67d3\u70eb
p136
aV\u91d1\u878d,\u94f6\u884c,atm
p137
aV\u91d1\u878d,\u4fe1\u7528\u793e,\u519c\u6751\u4fe1\u7528\u793e
p138
aV\u91d1\u878d,\u4fe1\u7528\u793e,\u57ce\u5e02\u4fe1\u7528\u793e
p139
aV\u4f11\u95f2\u5a31\u4e50,\u5ea6\u5047\u6751/\u519c\u5bb6\u9662/\u91c7\u6458\u56ed,\u519c\u5bb6\u9662
p140
aV\u4f11\u95f2\u5a31\u4e50,\u5ea6\u5047\u6751/\u519c\u5bb6\u9662/\u91c7\u6458\u56ed,\u5ea6\u5047
p141
aV\u4f11\u95f2\u5a31\u4e50,\u5ea6\u5047\u6751/\u519c\u5bb6\u9662/\u91c7\u6458\u56ed,\u91c7\u6458\u56ed
p142
aV\u4f11\u95f2\u5a31\u4e50,\u591c\u603b\u4f1a/\u6b4c\u821e\u5385/\u5a31\u4e50\u57ce/\u8fea\u5385,\u591c\u603b\u4f1a
p143
aV\u4f11\u95f2\u5a31\u4e50,\u591c\u603b\u4f1a/\u6b4c\u821e\u5385/\u5a31\u4e50\u57ce/\u8fea\u5385,\u6b4c\u821e\u5385
p144
aV\u4f11\u95f2\u5a31\u4e50,\u591c\u603b\u4f1a/\u6b4c\u821e\u5385/\u5a31\u4e50\u57ce/\u8fea\u5385,\u5a31\u4e50\u57ce
p145
aV\u4f11\u95f2\u5a31\u4e50,\u591c\u603b\u4f1a/\u6b4c\u821e\u5385/\u5a31\u4e50\u57ce/\u8fea\u5385,\u8fea\u5385
p146
aV\u4f11\u95f2\u5a31\u4e50,\u6d17\u6d74/\u6309\u6469/\u8db3\u6d74/\u6e29\u6cc9,\u6d17\u6d74\u4e2d\u5fc3
p147
aV\u4f11\u95f2\u5a31\u4e50,\u6d17\u6d74/\u6309\u6469/\u8db3\u6d74/\u6e29\u6cc9,\u6851\u62ff
p148
aV\u4f11\u95f2\u5a31\u4e50,\u6d17\u6d74/\u6309\u6469/\u8db3\u6d74/\u6e29\u6cc9,\u6e29\u6cc9
p149
aV\u4f11\u95f2\u5a31\u4e50,\u6d17\u6d74/\u6309\u6469/\u8db3\u6d74/\u6e29\u6cc9,\u6309\u6469
p150
aV\u4f11\u95f2\u5a31\u4e50,\u6d17\u6d74/\u6309\u6469/\u8db3\u6d74/\u6e29\u6cc9,\u8db3\u6d74
p151
aV\u4f11\u95f2\u5a31\u4e50,\u6e38\u620f,\u7535\u73a9
p152
aV\u4f11\u95f2\u5a31\u4e50,\u6e38\u620f,\u68cb\u724c\u5ba4
p153
aV\u4f11\u95f2\u5a31\u4e50,\u6e38\u620f,\u684c\u6e38
p154
aV\u4f11\u95f2\u5a31\u4e50,\u6e38\u620f,\u771f\u4ebaCS
p155
aV\u4f11\u95f2\u5a31\u4e50,\u9152\u5427/\u8336\u5ea7/\u5496\u5561\u5385,\u9152\u5427
p156
aV\u4f11\u95f2\u5a31\u4e50,\u9152\u5427/\u8336\u5ea7/\u5496\u5561\u5385,\u8336\u5ea7
p157
aV\u4f11\u95f2\u5a31\u4e50,\u9152\u5427/\u8336\u5ea7/\u5496\u5561\u5385,\u5496\u5561\u5385
p158
aV\u4f11\u95f2\u5a31\u4e50,DIY\u624b\u5de5,DIY\u86cb\u7cd5
p159
aV\u4f11\u95f2\u5a31\u4e50,DIY\u624b\u5de5,DIY\u9970\u54c1
p160
aV\u8fd0\u52a8\u5065\u8eab,\u4f53\u80b2\u573a\u9986,\u6e38\u6cf3\u9986
p161
aV\u8fd0\u52a8\u5065\u8eab,\u4f53\u80b2\u573a\u9986,\u7fbd\u6bdb\u7403\u9986
p162
aV\u8fd0\u52a8\u5065\u8eab,\u4f53\u80b2\u573a\u9986,\u4e52\u4e53\u7403\u9986
p163
aV\u8fd0\u52a8\u5065\u8eab,\u4f53\u80b2\u573a\u9986,\u53f0\u7403\u9986
p164
aV\u8fd0\u52a8\u5065\u8eab,\u4f53\u80b2\u573a\u9986,\u4fdd\u9f84\u7403\u9986
p165
aV\u8fd0\u52a8\u5065\u8eab,\u4f53\u80b2\u573a\u9986,\u6b66\u672f\u9986
p166
aV\u8fd0\u52a8\u5065\u8eab,\u4f53\u80b2\u573a\u9986,\u4f53\u64cd\u9986
p167
aV\u8fd0\u52a8\u5065\u8eab,\u4f53\u80b2\u573a\u9986,\u7f51\u7403\u573a
p168
aV\u8fd0\u52a8\u5065\u8eab,\u4f53\u80b2\u573a\u9986,\u7bee\u7403\u573a
p169
aV\u8fd0\u52a8\u5065\u8eab,\u4f53\u80b2\u573a\u9986,\u8db3\u7403\u573a
p170
aV\u8fd0\u52a8\u5065\u8eab,\u4f53\u80b2\u573a\u9986,\u6e9c\u51b0\u573a
p171
aV\u8fd0\u52a8\u5065\u8eab,\u4f53\u80b2\u573a\u9986,\u9ad8\u5c14\u592b\u7403\u573a
p172
aV\u8fd0\u52a8\u5065\u8eab,\u4f53\u80b2\u573a\u9986,\u6ed1\u96ea\u573a
p173
aV\u8fd0\u52a8\u5065\u8eab,\u4f53\u80b2\u573a\u9986,\u8d5b\u9a6c\u573a
p174
aV\u8fd0\u52a8\u5065\u8eab,\u821e\u8e48,\u82ad\u857e
p175
aV\u8fd0\u52a8\u5065\u8eab,\u6781\u9650\u8fd0\u52a8,\u6f5c\u6c34
p176
aV\u8fd0\u52a8\u5065\u8eab,\u6781\u9650\u8fd0\u52a8,\u8d5b\u8f66\u573a
p177
aV\u8fd0\u52a8\u5065\u8eab,\u6781\u9650\u8fd0\u52a8,\u6500\u5ca9
p178
aV\u8fd0\u52a8\u5065\u8eab,\u6781\u9650\u8fd0\u52a8,\u8e66\u6781
p179
aV\u8fd0\u52a8\u5065\u8eab,\u6781\u9650\u8fd0\u52a8,\u822a\u7a7a\u6ed1\u7fd4
p180
aV\u8fd0\u52a8\u5065\u8eab,\u6781\u9650\u8fd0\u52a8,\u51b2\u6d6a
p181
aV\u8fd0\u52a8\u5065\u8eab,\u6781\u9650\u8fd0\u52a8,\u5b9a\u5411\u8d8a\u91ce
p182
aV\u533b\u7597,\u533b\u9662,\u4e09\u7532\u533b\u9662
p183
aV\u533b\u7597,\u533b\u9662,\u4e09\u4e59\u533b\u9662
p184
aV\u533b\u7597,\u533b\u9662,\u4e09\u4e19\u533b\u9662
p185
aV\u533b\u7597,\u533b\u9662,\u4e8c\u7532\u533b\u9662
p186
aV\u533b\u7597,\u533b\u9662,\u4e8c\u4e59\u533b\u9662
p187
aV\u533b\u7597,\u533b\u9662,\u4e8c\u4e19\u533b\u9662
p188
aV\u533b\u7597,\u533b\u9662,\u4e00\u7ea7\u533b\u9662
p189
aV\u533b\u7597,\u533b\u9662,\u7efc\u5408\u533b\u9662
p190
aV\u533b\u7597,\u533b\u9662,\u5987\u4ea7\u79d1\u533b\u9662
p191
aV\u533b\u7597,\u533b\u9662,\u5987\u79d1\u533b\u9662
p192
aV\u533b\u7597,\u533b\u9662,\u513f\u7ae5\u533b\u9662
p193
aV\u533b\u7597,\u533b\u9662,\u53e3\u8154\u533b\u9662
p194
aV\u533b\u7597,\u533b\u9662,\u80bf\u7624\u533b\u9662
p195
aV\u533b\u7597,\u533b\u9662,\u7cbe\u795e\u75c5\u533b\u9662
p196
aV\u533b\u7597,\u533b\u9662,\u7cd6\u5c3f\u75c5\u533b\u9662
p197
aV\u533b\u7597,\u533b\u9662,\u7259\u79d1\u533b\u9662
p198
aV\u533b\u7597,\u533b\u9662,\u773c\u79d1\u533b\u9662
p199
aV\u533b\u7597,\u533b\u9662,\u9aa8\u79d1\u533b\u9662
p200
aV\u533b\u7597,\u533b\u9662,\u7537\u79d1\u533b\u9662
p201
aV\u533b\u7597,\u533b\u9662,\u76ae\u80a4\u75c5\u533b\u9662
p202
aV\u533b\u7597,\u533b\u9662,\u5fc3\u7406\u533b\u9662
p203
aV\u533b\u7597,\u533b\u9662,\u4f20\u67d3\u75c5\u533b\u9662
p204
aV\u533b\u7597,\u533b\u9662,\u5987\u5e7c\u4fdd\u5065\u9662
p205
aV\u533b\u7597,\u533b\u9662,\u809b\u80a0\u79d1\u533b\u9662
p206
aV\u533b\u7597,\u533b\u9662,\u5fc3\u8840\u7ba1\u75c5\u533b\u9662
p207
aV\u533b\u7597,\u533b\u9662,\u4e94\u5b98\u79d1\u533b\u9662
p208
aV\u533b\u7597,\u533b\u9662,\u4e2d\u533b\u9662
p209
aV\u65c5\u6e38\u666f\u70b9,\u516c\u56ed,\u52a8\u7269\u56ed
p210
aV\u65c5\u6e38\u666f\u70b9,\u516c\u56ed,\u690d\u7269\u56ed
p211
aV\u65c5\u6e38\u666f\u70b9,\u516c\u56ed,\u56fd\u5bb6\u516c\u56ed
p212
aV\u65c5\u6e38\u666f\u70b9,\u98ce\u666f\u533a,5A\u98ce\u666f\u533a
p213
aV\u65c5\u6e38\u666f\u70b9,\u98ce\u666f\u533a,4A\u98ce\u666f\u533a
p214
aV\u65c5\u6e38\u666f\u70b9,\u98ce\u666f\u533a,3A\u98ce\u666f\u533a
p215
aV\u6559\u80b2,\u5b66\u6821,\u5e7c\u513f\u56ed
p216
aV\u6559\u80b2,\u5b66\u6821,\u5c0f\u5b66
p217
aV\u6559\u80b2,\u5b66\u6821,\u521d\u4e2d
p218
aV\u6559\u80b2,\u5b66\u6821,\u9ad8\u4e2d
p219
aV\u6559\u80b2,\u5b66\u6821,\u4e2d\u4e13
p220
aV\u6559\u80b2,\u5b66\u6821,\u5927\u5b66
p221
aV\u6559\u80b2,\u5b66\u6821,\u7279\u6b8a\u6559\u80b2\u5b66\u6821
p222
aV\u57f9\u8bad\u673a\u6784,\u6280\u80fd\u57f9\u8bad,\u9a7e\u6821
p223
aV\u57f9\u8bad\u673a\u6784,\u6280\u80fd\u57f9\u8bad,\u7535\u8111\u57f9\u8bad
p224
aV\u57f9\u8bad\u673a\u6784,\u6280\u80fd\u57f9\u8bad,\u7f8e\u5bb9\u57f9\u8bad
p225
aV\u57f9\u8bad\u673a\u6784,\u6280\u80fd\u57f9\u8bad,\u7f8e\u53d1\u57f9\u8bad
p226
aV\u57f9\u8bad\u673a\u6784,\u6280\u80fd\u57f9\u8bad,\u53a8\u5e08\u57f9\u8bad
p227
aV\u57f9\u8bad\u673a\u6784,\u827a\u672f\u57f9\u8bad,\u7f8e\u672f\u57f9\u8bad
p228
aV\u57f9\u8bad\u673a\u6784,\u827a\u672f\u57f9\u8bad,\u5409\u4ed6\u57f9\u8bad
p229
aV\u57f9\u8bad\u673a\u6784,\u827a\u672f\u57f9\u8bad,\u94a2\u7434\u57f9\u8bad
p230
aV\u57f9\u8bad\u673a\u6784,\u827a\u672f\u57f9\u8bad,\u5c0f\u63d0\u7434\u57f9\u8bad
p231
aV\u57f9\u8bad\u673a\u6784,\u827a\u672f\u57f9\u8bad,\u58f0\u4e50\u57f9\u8bad
p232
aV\u57f9\u8bad\u673a\u6784,\u8bed\u8a00\u57f9\u8bad,\u65e5\u8bed\u57f9\u8bad
p233
aV\u57f9\u8bad\u673a\u6784,\u8bed\u8a00\u57f9\u8bad,\u97e9\u8bed\u57f9\u8bad
p234
aV\u57f9\u8bad\u673a\u6784,\u8bed\u8a00\u57f9\u8bad,\u82f1\u8bed\u57f9\u8bad
p235
aV\u57f9\u8bad\u673a\u6784,\u8bed\u8a00\u57f9\u8bad,\u6cd5\u8bed\u57f9\u8bad
p236
aV\u57f9\u8bad\u673a\u6784,\u8bed\u8a00\u57f9\u8bad,\u5fb7\u8bed\u57f9\u8bad
p237
aV\u57f9\u8bad\u673a\u6784,\u8003\u8bd5\u57f9\u8bad,GRE\u57f9\u8bad
p238
aV\u57f9\u8bad\u673a\u6784,\u8003\u8bd5\u57f9\u8bad,\u9ad8\u8003\u57f9\u8bad
p239
aV\u57f9\u8bad\u673a\u6784,\u8003\u8bd5\u57f9\u8bad,\u8003\u7814\u57f9\u8bad
p240
aV\u57f9\u8bad\u673a\u6784,\u8003\u8bd5\u57f9\u8bad,\u516c\u52a1\u5458\u8003\u8bd5\u57f9\u8bad
p241
aV\u57f9\u8bad\u673a\u6784,\u8003\u8bd5\u57f9\u8bad,\u53f8\u6cd5\u8003\u8bd5\u57f9\u8bad
p242
aV\u57f9\u8bad\u673a\u6784,\u8003\u8bd5\u57f9\u8bad,TOFEL\u57f9\u8bad
p243
aV\u57f9\u8bad\u673a\u6784,\u8003\u8bd5\u57f9\u8bad,\u56db\u516d\u7ea7\u57f9\u8bad
p244
aV\u57f9\u8bad\u673a\u6784,\u4f53\u80b2\u57f9\u8bad,\u4e52\u4e53\u7403\u57f9\u8bad
p245
aV\u57f9\u8bad\u673a\u6784,\u4f53\u80b2\u57f9\u8bad,\u7fbd\u6bdb\u7403\u57f9\u8bad
p246
aV\u57f9\u8bad\u673a\u6784,\u4f53\u80b2\u57f9\u8bad,\u7f51\u7403\u57f9\u8bad
p247
aV\u623f\u5730\u4ea7,\u4f4f\u5b85\u533a,\u5c0f\u533a
p248
aV\u623f\u5730\u4ea7,\u4f4f\u5b85\u533a,\u516c\u5bd3
p249
aV\u623f\u5730\u4ea7,\u4f4f\u5b85\u533a,\u522b\u5885
p250
aV\u884c\u653f\u533a\u5212,\u79d1\u6280\u56ed,\u8f6f\u4ef6\u56ed
p251
aV\u884c\u653f\u533a\u5212,\u5f00\u53d1\u533a,\u65c5\u6e38\u5f00\u53d1\u533a
p252
aV\u884c\u653f\u533a\u5212,\u5f00\u53d1\u533a,\u7ecf\u6d4e\u5f00\u53d1\u533a
p253
aV\u884c\u653f\u533a\u5212,\u5f00\u53d1\u533a,\u9ad8\u65b0\u6280\u672f\u5f00\u53d1\u533a
p254
aV\u653f\u5e9c\u673a\u6784,\u653f\u5e9c,\u56fd\u52a1\u9662
p255
aV\u653f\u5e9c\u673a\u6784,\u653f\u5e9c,\u7701\u653f\u5e9c
p256
aV\u653f\u5e9c\u673a\u6784,\u653f\u5e9c,\u5e02\u653f\u5e9c
p257
aV\u653f\u5e9c\u673a\u6784,\u653f\u5e9c,\u53bf\u653f\u5e9c
p258
aV\u653f\u5e9c\u673a\u6784,\u653f\u5e9c,\u9547\u653f\u5e9c
p259
aV\u653f\u5e9c\u673a\u6784,\u653f\u5e9c,\u8857\u9053\u529e\u4e8b\u5904
p260
aV\u653f\u5e9c\u673a\u6784,\u653f\u5e9c,\u653f\u5e9c\u9a7b\u5730\u529e\u4e8b\u5904
p261
aV\u653f\u5e9c\u673a\u6784,\u673a\u5173\u5355\u4f4d,\u516c\u5b89\u5c40
p262
aV\u653f\u5e9c\u673a\u6784,\u673a\u5173\u5355\u4f4d,\u6d3e\u51fa\u6240
p263
aV\u653f\u5e9c\u673a\u6784,\u673a\u5173\u5355\u4f4d,\u4ea4\u901a\u5c40
p264
aV\u653f\u5e9c\u673a\u6784,\u673a\u5173\u5355\u4f4d,\u53f8\u6cd5\u5c40
p265
aV\u653f\u5e9c\u673a\u6784,\u673a\u5173\u5355\u4f4d,\u6d88\u9632\u5c40
p266
aV\u653f\u5e9c\u673a\u6784,\u673a\u5173\u5355\u4f4d,\u5de5\u5546\u5c40
p267
aV\u653f\u5e9c\u673a\u6784,\u673a\u5173\u5355\u4f4d,\u5730\u7a0e\u5c40
p268
aV\u653f\u5e9c\u673a\u6784,\u673a\u5173\u5355\u4f4d,\u56fd\u7a0e\u5c40
p269
aV\u653f\u5e9c\u673a\u6784,\u673a\u5173\u5355\u4f4d,\u8d22\u653f\u5c40
p270
aV\u653f\u5e9c\u673a\u6784,\u673a\u5173\u5355\u4f4d,\u6c11\u653f\u5c40
p271
aV\u653f\u5e9c\u673a\u6784,\u673a\u5173\u5355\u4f4d,\u4ea4\u7ba1\u5c40
p272
aV\u653f\u5e9c\u673a\u6784,\u673a\u5173\u5355\u4f4d,\u7535\u4fe1\u5c40
p273
aV\u653f\u5e9c\u673a\u6784,\u673a\u5173\u5355\u4f4d,\u6d77\u5173
p274
aV\u653f\u5e9c\u673a\u6784,\u673a\u5173\u5355\u4f4d,\u98df\u54c1\u5c40
p275
aV\u653f\u5e9c\u673a\u6784,\u673a\u5173\u5355\u4f4d,\u5730\u9707\u5c40
p276
aV\u653f\u5e9c\u673a\u6784,\u673a\u5173\u5355\u4f4d,\u52b3\u52a8\u5c40
p277
aV\u653f\u5e9c\u673a\u6784,\u673a\u5173\u5355\u4f4d,\u6559\u80b2\u5c40
p278
aV\u653f\u5e9c\u673a\u6784,\u673a\u5173\u5355\u4f4d,\u6c14\u8c61\u5c40
p279
aV\u653f\u5e9c\u673a\u6784,\u673a\u5173\u5355\u4f4d,\u7269\u4ef7\u5c40
p280
aV\u653f\u5e9c\u673a\u6784,\u673a\u5173\u5355\u4f4d,\u70df\u8349\u4e13\u5356\u5c40
p281
aV\u653f\u5e9c\u673a\u6784,\u673a\u5173\u5355\u4f4d,\u8d28\u76d1\u5c40
p282
aV\u653f\u5e9c\u673a\u6784,\u673a\u5173\u5355\u4f4d,\u536b\u751f\u5c40
p283
aV\u653f\u5e9c\u673a\u6784,\u673a\u5173\u5355\u4f4d,\u89c4\u5212\u5c40
p284
aV\u653f\u5e9c\u673a\u6784,\u673a\u5173\u5355\u4f4d,\u6c34\u5229\u5c40
p285
aV\u653f\u5e9c\u673a\u6784,\u673a\u5173\u5355\u4f4d,\u6587\u5316\u5c40
p286
aV\u653f\u5e9c\u673a\u6784,\u673a\u5173\u5355\u4f4d,\u5ba1\u8ba1\u5c40
p287
aV\u653f\u5e9c\u673a\u6784,\u673a\u5173\u5355\u4f4d,\u65c5\u6e38\u5c40
p288
aV\u653f\u5e9c\u673a\u6784,\u673a\u5173\u5355\u4f4d,\u4f53\u80b2\u5c40
p289
aV\u653f\u5e9c\u673a\u6784,\u673a\u5173\u5355\u4f4d,\u7cae\u98df\u5c40
p290
aV\u653f\u5e9c\u673a\u6784,\u673a\u5173\u5355\u4f4d,\u623f\u7ba1\u6240
p291
aV\u653f\u5e9c\u673a\u6784,\u673a\u5173\u5355\u4f4d,\u6863\u6848\u9986
p292
aV\u653f\u5e9c\u673a\u6784,\u673a\u5173\u5355\u4f4d,\u673a\u5173\u9a7b\u5730\u529e\u4e8b\u5904
p293
aV\u653f\u5e9c\u673a\u6784,\u6d89\u5916\u673a\u6784,\u5927\u4f7f\u9986
p294
aV\u653f\u5e9c\u673a\u6784,\u6d89\u5916\u673a\u6784,\u7b7e\u8bc1\u5904
p295
aV\u653f\u5e9c\u673a\u6784,\u798f\u5229\u673a\u6784,\u656c\u8001\u9662
p296
aV\u653f\u5e9c\u673a\u6784,\u798f\u5229\u673a\u6784,\u798f\u5229\u9662
p297
aV\u653f\u5e9c\u673a\u6784,\u6148\u5584\u673a\u6784,\u7ea2\u5341\u5b57\u4f1a
p298
aV\u653f\u5e9c\u673a\u6784,\u6148\u5584\u673a\u6784,\u6b8b\u75be\u4eba\u8054\u5408\u4f1a
p299
aV\u653f\u5e9c\u673a\u6784,\u6148\u5584\u673a\u6784,\u9752\u5c11\u5e74\u57fa\u91d1\u4f1a
p300
aV\u516c\u53f8\u4f01\u4e1a,IT\u4f01\u4e1a,\u8f6f\u4ef6\u516c\u53f8
p301
aV\u516c\u53f8\u4f01\u4e1a,IT\u4f01\u4e1a,\u4e92\u8054\u7f51\u516c\u53f8
p302
aV\u516c\u53f8\u4f01\u4e1a,\u4f20\u5a92\u516c\u53f8,\u5e7f\u64ad\u7535\u89c6\u516c\u53f8
p303
aV\u516c\u53f8\u4f01\u4e1a,\u4f20\u5a92\u516c\u53f8,\u62a5\u793e
p304
aV\u516c\u53f8\u4f01\u4e1a,\u4f20\u5a92\u516c\u53f8,\u6742\u5fd7\u793e
p305
aV\u516c\u53f8\u4f01\u4e1a,\u4f20\u5a92\u516c\u53f8,\u5e7f\u544a\u516c\u53f8
p306
aV\u516c\u53f8\u4f01\u4e1a,\u516c\u7528\u4e8b\u4e1a,\u81ea\u6765\u6c34\u516c\u53f8
p307
aV\u516c\u53f8\u4f01\u4e1a,\u516c\u7528\u4e8b\u4e1a,\u7535\u529b\u516c\u53f8
p308
aV\u516c\u53f8\u4f01\u4e1a,\u516c\u7528\u4e8b\u4e1a,\u71c3\u6c14\u516c\u53f8
p309
aV\u516c\u53f8\u4f01\u4e1a,\u623f\u5730\u4ea7\u516c\u53f8,\u623f\u5730\u4ea7\u5f00\u53d1\u516c\u53f8
p310
aV\u516c\u53f8\u4f01\u4e1a,\u623f\u5730\u4ea7\u516c\u53f8,\u7269\u4e1a\u7ba1\u7406\u516c\u53f8
p311
aV\u516c\u53f8\u4f01\u4e1a,\u623f\u5730\u4ea7\u516c\u53f8,\u552e\u697c\u5904
p312
aV\u516c\u53f8\u4f01\u4e1a,\u7269\u6d41\u516c\u53f8,\u8d27\u8fd0\u516c\u53f8
p313
aV\u516c\u53f8\u4f01\u4e1a,\u4e8b\u52a1\u6240,\u5f8b\u5e08\u4e8b\u52a1\u6240
p314
aV\u516c\u53f8\u4f01\u4e1a,\u4e8b\u52a1\u6240,\u4f1a\u8ba1\u4e8b\u52a1\u6240
p315
aV\u516c\u53f8\u4f01\u4e1a,\u4e8b\u52a1\u6240,\u5ba1\u8ba1\u4e8b\u52a1\u6240
p316
aV\u516c\u53f8\u4f01\u4e1a,\u54a8\u8be2\u516c\u53f8,\u7ba1\u7406\u54a8\u8be2\u516c\u53f8
p317
aV\u516c\u53f8\u4f01\u4e1a,\u54a8\u8be2\u516c\u53f8,\u6280\u672f\u54a8\u8be2\u516c\u53f8
p318
aV\u516c\u53f8\u4f01\u4e1a,\u54a8\u8be2\u516c\u53f8,\u5de5\u7a0b\u54a8\u8be2\u516c\u53f8
p319
aV\u516c\u53f8\u4f01\u4e1a,\u54a8\u8be2\u516c\u53f8,\u6295\u8d44\u54a8\u8be2\u516c\u53f8
p320
aV\u516c\u53f8\u4f01\u4e1a,\u54a8\u8be2\u516c\u53f8,\u6559\u80b2\u54a8\u8be2\u516c\u53f8
p321
aV\u516c\u53f8\u4f01\u4e1a,\u5236\u9020\u4e1a,\u7eba\u7ec7\u516c\u53f8
p322
aV\u516c\u53f8\u4f01\u4e1a,\u5236\u9020\u4e1a,\u98df\u54c1\u516c\u53f8
p323
aV\u516c\u53f8\u4f01\u4e1a,\u5236\u9020\u4e1a,\u5236\u836f\u516c\u53f8
p324
aV\u516c\u53f8\u4f01\u4e1a,\u5236\u9020\u4e1a,\u901a\u8baf\u8bbe\u5907\u5236\u9020\u516c\u53f8
p325
aV\u516c\u53f8\u4f01\u4e1a,\u5236\u9020\u4e1a,\u8ba1\u7b97\u673a\u5236\u9020\u516c\u53f8
p326
aV\u516c\u53f8\u4f01\u4e1a,\u5236\u9020\u4e1a,\u5bb6\u7535\u5236\u9020\u516c\u53f8
p327
aV\u516c\u53f8\u4f01\u4e1a,\u5236\u9020\u4e1a,\u6c7d\u8f66\u5236\u9020\u516c\u53f8
p328
a.